target datalayout = "e-m:e-p270:32:32-p271:32:32-p272:64:64-i64:64-i128:128-f80:128-n8:16:32:64-S128"
target triple = "x86_64-pc-linux-gnu"

%struct.ObjectAddress = type { i32, i32, i32 }
%struct.ObjectAddresses = type { ptr, ptr, i32, i32 }
%struct.find_expr_references_context = type { ptr, ptr }
%union.ListCell = type { ptr }
%struct.ForEachState = type { ptr, i32 }
%struct.RangeTblEntry = type { i32, ptr, ptr, i32, i32, i8, i8, i32, i32, ptr, ptr, i8, i32, i32, ptr, ptr, ptr, ptr, ptr, i8, ptr, ptr, ptr, i32, i8, ptr, ptr, ptr, ptr, double, ptr, i8, i8, ptr }
%struct.List = type { i32, i32, i32, ptr, [0 x %union.ListCell] }
%struct.Alias = type { i32, ptr, ptr }
%struct.RangeTblFunction = type { i32, ptr, i32, ptr, ptr, ptr, ptr, ptr }
%struct.TupleDescData = type { i32, i32, i32, i32, ptr, [0 x %struct.CompactAttribute] }
%struct.CompactAttribute = type { i32, i16, i8, i8, i8, i8, i8, i8, i8 }

@.str.1 = private unnamed_addr constant [13 x i8] c"dependency.c\00", align 1
@.str.28 = private unnamed_addr constant [42 x i8] c"column %d of relation \22%s\22 does not exist\00", align 1
@__func__.process_function_rte_ref = private unnamed_addr constant [25 x i8] c"process_function_rte_ref\00", align 1

; Function Attrs: nounwind uwtable
define internal void @add_object_address(i32 noundef %0, i32 noundef %1, i32 noundef %2, ptr noundef %3) #0 {
  %5 = alloca i32, align 4
  %6 = alloca i32, align 4
  %7 = alloca i32, align 4
  %8 = alloca ptr, align 8
  %9 = alloca ptr, align 8
  store i32 %0, ptr %5, align 4
  store i32 %1, ptr %6, align 4
  store i32 %2, ptr %7, align 4
  store ptr %3, ptr %8, align 8
  call void @llvm.lifetime.start.p0(i64 8, ptr %9) #8
  %10 = load ptr, ptr %8, align 8
  %11 = getelementptr inbounds nuw %struct.ObjectAddresses, ptr %10, i32 0, i32 2
  %12 = load i32, ptr %11, align 8
  %13 = load ptr, ptr %8, align 8
  %14 = getelementptr inbounds nuw %struct.ObjectAddresses, ptr %13, i32 0, i32 3
  %15 = load i32, ptr %14, align 4
  %16 = icmp sge i32 %12, %15
  br i1 %16, label %17, label %33

17:                                               ; preds = %4
  %18 = load ptr, ptr %8, align 8
  %19 = getelementptr inbounds nuw %struct.ObjectAddresses, ptr %18, i32 0, i32 3
  %20 = load i32, ptr %19, align 4
  %21 = mul i32 %20, 2
  store i32 %21, ptr %19, align 4
  %22 = load ptr, ptr %8, align 8
  %23 = getelementptr inbounds nuw %struct.ObjectAddresses, ptr %22, i32 0, i32 0
  %24 = load ptr, ptr %23, align 8
  %25 = load ptr, ptr %8, align 8
  %26 = getelementptr inbounds nuw %struct.ObjectAddresses, ptr %25, i32 0, i32 3
  %27 = load i32, ptr %26, align 4
  %28 = sext i32 %27 to i64
  %29 = mul i64 %28, 12
  %30 = call ptr @repalloc(ptr noundef %24, i64 noundef %29)
  %31 = load ptr, ptr %8, align 8
  %32 = getelementptr inbounds nuw %struct.ObjectAddresses, ptr %31, i32 0, i32 0
  store ptr %30, ptr %32, align 8
  br label %33

33:                                               ; preds = %17, %4
  %34 = load ptr, ptr %8, align 8
  %35 = getelementptr inbounds nuw %struct.ObjectAddresses, ptr %34, i32 0, i32 0
  %36 = load ptr, ptr %35, align 8
  %37 = load ptr, ptr %8, align 8
  %38 = getelementptr inbounds nuw %struct.ObjectAddresses, ptr %37, i32 0, i32 2
  %39 = load i32, ptr %38, align 8
  %40 = sext i32 %39 to i64
  %41 = getelementptr inbounds %struct.ObjectAddress, ptr %36, i64 %40
  store ptr %41, ptr %9, align 8
  %42 = load i32, ptr %5, align 4
  %43 = load ptr, ptr %9, align 8
  %44 = getelementptr inbounds nuw %struct.ObjectAddress, ptr %43, i32 0, i32 0
  store i32 %42, ptr %44, align 4
  %45 = load i32, ptr %6, align 4
  %46 = load ptr, ptr %9, align 8
  %47 = getelementptr inbounds nuw %struct.ObjectAddress, ptr %46, i32 0, i32 1
  store i32 %45, ptr %47, align 4
  %48 = load i32, ptr %7, align 4
  %49 = load ptr, ptr %9, align 8
  %50 = getelementptr inbounds nuw %struct.ObjectAddress, ptr %49, i32 0, i32 2
  store i32 %48, ptr %50, align 4
  %51 = load ptr, ptr %8, align 8
  %52 = getelementptr inbounds nuw %struct.ObjectAddresses, ptr %51, i32 0, i32 2
  %53 = load i32, ptr %52, align 8
  %54 = add i32 %53, 1
  store i32 %54, ptr %52, align 8
  call void @llvm.lifetime.end.p0(i64 8, ptr %9) #8
  ret void
}

; Function Attrs: nounwind uwtable
define internal void @process_function_rte_ref(ptr noundef %0, i16 noundef signext %1, ptr noundef %2) #0 {
  %4 = alloca ptr, align 8
  %5 = alloca i16, align 2
  %6 = alloca ptr, align 8
  %7 = alloca i32, align 4
  %8 = alloca ptr, align 8
  %9 = alloca %struct.ForEachState, align 8
  %10 = alloca i32, align 4
  %11 = alloca ptr, align 8
  %12 = alloca ptr, align 8
  %13 = alloca i32, align 4
  store ptr %0, ptr %4, align 8
  store i16 %1, ptr %5, align 2
  store ptr %2, ptr %6, align 8
  call void @llvm.lifetime.start.p0(i64 4, ptr %7) #8
  store i32 0, ptr %7, align 4
  call void @llvm.lifetime.start.p0(i64 8, ptr %8) #8
  call void @llvm.lifetime.start.p0(i64 16, ptr %9) #8
  %14 = getelementptr inbounds nuw %struct.ForEachState, ptr %9, i32 0, i32 0
  %15 = load ptr, ptr %4, align 8
  %16 = getelementptr inbounds nuw %struct.RangeTblEntry, ptr %15, i32 0, i32 18
  %17 = load ptr, ptr %16, align 8
  store ptr %17, ptr %14, align 8
  %18 = getelementptr inbounds nuw %struct.ForEachState, ptr %9, i32 0, i32 1
  store i32 0, ptr %18, align 8
  %19 = getelementptr i8, ptr %9, i64 12
  call void @llvm.memset.p0.i64(ptr align 4 %19, i8 0, i64 4, i1 false)
  br label %20

20:                                               ; preds = %109, %3
  %21 = getelementptr inbounds nuw %struct.ForEachState, ptr %9, i32 0, i32 0
  %22 = load ptr, ptr %21, align 8
  %23 = icmp ne ptr %22, null
  br i1 %23, label %24, label %41

24:                                               ; preds = %20
  %25 = getelementptr inbounds nuw %struct.ForEachState, ptr %9, i32 0, i32 1
  %26 = load i32, ptr %25, align 8
  %27 = getelementptr inbounds nuw %struct.ForEachState, ptr %9, i32 0, i32 0
  %28 = load ptr, ptr %27, align 8
  %29 = getelementptr inbounds nuw %struct.List, ptr %28, i32 0, i32 1
  %30 = load i32, ptr %29, align 4
  %31 = icmp slt i32 %26, %30
  br i1 %31, label %32, label %41

32:                                               ; preds = %24
  %33 = getelementptr inbounds nuw %struct.ForEachState, ptr %9, i32 0, i32 0
  %34 = load ptr, ptr %33, align 8
  %35 = getelementptr inbounds nuw %struct.List, ptr %34, i32 0, i32 3
  %36 = load ptr, ptr %35, align 8
  %37 = getelementptr inbounds nuw %struct.ForEachState, ptr %9, i32 0, i32 1
  %38 = load i32, ptr %37, align 8
  %39 = sext i32 %38 to i64
  %40 = getelementptr inbounds %union.ListCell, ptr %36, i64 %39
  store ptr %40, ptr %8, align 8
  br label %42

41:                                               ; preds = %24, %20
  store ptr null, ptr %8, align 8
  br label %42

42:                                               ; preds = %41, %32
  %43 = phi i32 [ 1, %32 ], [ 0, %41 ]
  %44 = icmp ne i32 %43, 0
  br i1 %44, label %46, label %45

45:                                               ; preds = %42
  store i32 2, ptr %10, align 4
  br label %113

46:                                               ; preds = %42
  call void @llvm.lifetime.start.p0(i64 8, ptr %11) #8
  %47 = load ptr, ptr %8, align 8
  %48 = load ptr, ptr %47, align 8
  store ptr %48, ptr %11, align 8
  %49 = load i16, ptr %5, align 2
  %50 = sext i16 %49 to i32
  %51 = load i32, ptr %7, align 4
  %52 = icmp sgt i32 %50, %51
  br i1 %52, label %53, label %100

53:                                               ; preds = %46
  %54 = load i16, ptr %5, align 2
  %55 = sext i16 %54 to i32
  %56 = load i32, ptr %7, align 4
  %57 = load ptr, ptr %11, align 8
  %58 = getelementptr inbounds nuw %struct.RangeTblFunction, ptr %57, i32 0, i32 2
  %59 = load i32, ptr %58, align 8
  %60 = add i32 %56, %59
  %61 = icmp sle i32 %55, %60
  br i1 %61, label %62, label %100

62:                                               ; preds = %53
  call void @llvm.lifetime.start.p0(i64 8, ptr %12) #8
  %63 = load ptr, ptr %11, align 8
  %64 = getelementptr inbounds nuw %struct.RangeTblFunction, ptr %63, i32 0, i32 3
  %65 = load ptr, ptr %64, align 8
  %66 = icmp ne ptr %65, null
  br i1 %66, label %67, label %68

67:                                               ; preds = %62
  store ptr null, ptr %12, align 8
  br label %73

68:                                               ; preds = %62
  %69 = load ptr, ptr %11, align 8
  %70 = getelementptr inbounds nuw %struct.RangeTblFunction, ptr %69, i32 0, i32 1
  %71 = load ptr, ptr %70, align 8
  %72 = call ptr @get_expr_result_tupdesc(ptr noundef %71, i1 noundef zeroext true)
  store ptr %72, ptr %12, align 8
  br label %73

73:                                               ; preds = %68, %67
  %74 = load ptr, ptr %12, align 8
  %75 = icmp ne ptr %74, null
  br i1 %75, label %76, label %98

76:                                               ; preds = %73
  %77 = load ptr, ptr %12, align 8
  %78 = getelementptr inbounds nuw %struct.TupleDescData, ptr %77, i32 0, i32 1
  %79 = load i32, ptr %78, align 4
  %80 = icmp ne i32 %79, 2249
  br i1 %80, label %81, label %98

81:                                               ; preds = %76
  call void @llvm.lifetime.start.p0(i64 4, ptr %13) #8
  %82 = load ptr, ptr %12, align 8
  %83 = getelementptr inbounds nuw %struct.TupleDescData, ptr %82, i32 0, i32 1
  %84 = load i32, ptr %83, align 4
  %85 = call i32 @get_typ_typrelid(i32 noundef %84)
  store i32 %85, ptr %13, align 4
  %86 = load i32, ptr %13, align 4
  %87 = icmp ne i32 %86, 0
  br i1 %87, label %88, label %97

88:                                               ; preds = %81
  %89 = load i32, ptr %13, align 4
  %90 = load i16, ptr %5, align 2
  %91 = sext i16 %90 to i32
  %92 = load i32, ptr %7, align 4
  %93 = sub i32 %91, %92
  %94 = load ptr, ptr %6, align 8
  %95 = getelementptr inbounds nuw %struct.find_expr_references_context, ptr %94, i32 0, i32 0
  %96 = load ptr, ptr %95, align 8
  call void @add_object_address(i32 noundef 1259, i32 noundef %89, i32 noundef %93, ptr noundef %96)
  br label %97

97:                                               ; preds = %88, %81
  store i32 1, ptr %10, align 4
  call void @llvm.lifetime.end.p0(i64 4, ptr %13) #8
  br label %99

98:                                               ; preds = %76, %73
  store i32 1, ptr %10, align 4
  br label %99

99:                                               ; preds = %98, %97
  call void @llvm.lifetime.end.p0(i64 8, ptr %12) #8
  br label %106

100:                                              ; preds = %53, %46
  %101 = load ptr, ptr %11, align 8
  %102 = getelementptr inbounds nuw %struct.RangeTblFunction, ptr %101, i32 0, i32 2
  %103 = load i32, ptr %102, align 8
  %104 = load i32, ptr %7, align 4
  %105 = add i32 %104, %103
  store i32 %105, ptr %7, align 4
  store i32 0, ptr %10, align 4
  br label %106

106:                                              ; preds = %100, %99
  call void @llvm.lifetime.end.p0(i64 8, ptr %11) #8
  %107 = load i32, ptr %10, align 4
  switch i32 %107, label %113 [
    i32 0, label %108
  ]

108:                                              ; preds = %106
  br label %109

109:                                              ; preds = %108
  %110 = getelementptr inbounds nuw %struct.ForEachState, ptr %9, i32 0, i32 1
  %111 = load i32, ptr %110, align 8
  %112 = add i32 %111, 1
  store i32 %112, ptr %110, align 8
  br label %20, !llvm.loop !34

113:                                              ; preds = %106, %45
  call void @llvm.lifetime.end.p0(i64 16, ptr %9) #8
  %114 = load i32, ptr %10, align 4
  switch i32 %114, label %146 [
    i32 2, label %115
  ]

115:                                              ; preds = %113
  %116 = load ptr, ptr %4, align 8
  %117 = getelementptr inbounds nuw %struct.RangeTblEntry, ptr %116, i32 0, i32 19
  %118 = load i8, ptr %117, align 8, !range !6, !noundef !7
  %119 = trunc i8 %118 to i1
  br i1 %119, label %120, label %127

120:                                              ; preds = %115
  %121 = load i16, ptr %5, align 2
  %122 = sext i16 %121 to i32
  %123 = load i32, ptr %7, align 4
  %124 = add i32 %123, 1
  %125 = icmp eq i32 %122, %124
  br i1 %125, label %126, label %127

126:                                              ; preds = %120
  store i32 1, ptr %10, align 4
  br label %146

127:                                              ; preds = %120, %115
  br label %128

128:                                              ; preds = %127
  br i1 true, label %129, label %131

129:                                              ; preds = %128
  %130 = call zeroext i1 @errstart_cold(i32 noundef 21, ptr noundef null) #9
  br i1 %130, label %133, label %143

131:                                              ; preds = %128
  %132 = call zeroext i1 @errstart(i32 noundef 21, ptr noundef null)
  br i1 %132, label %133, label %143

133:                                              ; preds = %131, %129
  %134 = call i32 @errcode(i32 noundef 50360452)
  %135 = load i16, ptr %5, align 2
  %136 = sext i16 %135 to i32
  %137 = load ptr, ptr %4, align 8
  %138 = getelementptr inbounds nuw %struct.RangeTblEntry, ptr %137, i32 0, i32 2
  %139 = load ptr, ptr %138, align 8
  %140 = getelementptr inbounds nuw %struct.Alias, ptr %139, i32 0, i32 1
  %141 = load ptr, ptr %140, align 8
  %142 = call i32 (ptr, ...) @errmsg(ptr noundef @.str.28, i32 noundef %136, ptr noundef %141)
  call void @errfinish(ptr noundef @.str.1, i32 noundef 2391, ptr noundef @__func__.process_function_rte_ref)
  br label %143

143:                                              ; preds = %133, %131, %129
  unreachable

144:                                              ; No predecessors!
  br label %145

145:                                              ; preds = %144
  store i32 0, ptr %10, align 4
  br label %146

146:                                              ; preds = %145, %126, %113
  call void @llvm.lifetime.end.p0(i64 8, ptr %8) #8
  call void @llvm.lifetime.end.p0(i64 4, ptr %7) #8
  %147 = load i32, ptr %10, align 4
  switch i32 %147, label %149 [
    i32 0, label %148
    i32 1, label %148
  ]

148:                                              ; preds = %146, %146
  ret void

149:                                              ; preds = %146
  unreachable
}