; Function Attrs: nounwind uwtable
define internal fastcc void @process_function_rte_ref(ptr noundef readonly captures(none) %0, i16 noundef signext %1, ptr noundef readonly captures(none) %2) unnamed_addr #0 {
  %4 = getelementptr inbounds nuw i8, ptr %0, i64 112
  %5 = load ptr, ptr %4, align 8
  %.not = icmp eq ptr %5, null
  br i1 %.not, label %._crit_edge, label %.lr.ph

.lr.ph:                                           ; preds = %3
  %6 = getelementptr inbounds nuw i8, ptr %5, i64 4
  %7 = load i32, ptr %6, align 4
  %8 = sext i16 %1 to i32
  %9 = icmp sgt i32 %7, 0
  br i1 %9, label %.lr.ph69, label %._crit_edge

.lr.ph69:                                         ; preds = %.lr.ph
  %10 = getelementptr inbounds nuw i8, ptr %5, i64 16
  %11 = load ptr, ptr %10, align 8
  %wide.trip.count = zext nneg i32 %7 to i64
  br label %12

12:                                               ; preds = %.lr.ph69, %._crit_edge75
  %indvars.iv = phi i64 [ 0, %.lr.ph69 ], [ %indvars.iv.next, %._crit_edge75 ]
  %.06067 = phi i32 [ 0, %.lr.ph69 ], [ %18, %._crit_edge75 ]
  %13 = getelementptr inbounds nuw %union.ListCell, ptr %11, i64 %indvars.iv
  %14 = load ptr, ptr %13, align 8
  %15 = icmp sge i32 %.06067, %8
  %16 = getelementptr inbounds nuw i8, ptr %14, i64 16
  %17 = load i32, ptr %16, align 8
  %18 = add i32 %17, %.06067
  %.not40 = icmp slt i32 %18, %8
  %or.cond = select i1 %15, i1 true, i1 %.not40
  br i1 %or.cond, label %._crit_edge75, label %.split

.split:                                           ; preds = %12
  %19 = getelementptr inbounds nuw i8, ptr %14, i64 24
  %20 = load ptr, ptr %19, align 8
  %.not41 = icmp eq ptr %20, null
  br i1 %.not41, label %21, label %.thread48

21:                                               ; preds = %.split
  %22 = getelementptr inbounds nuw i8, ptr %14, i64 8
  %23 = load ptr, ptr %22, align 8
  %24 = tail call ptr @get_expr_result_tupdesc(ptr noundef %23, i1 noundef zeroext true) #9
  %.not42 = icmp eq ptr %24, null
  br i1 %.not42, label %.thread48, label %25

25:                                               ; preds = %21
  %26 = getelementptr inbounds nuw i8, ptr %24, i64 4
  %27 = load i32, ptr %26, align 4
  %.not43 = icmp eq i32 %27, 2249
  br i1 %.not43, label %.thread48, label %28

28:                                               ; preds = %25
  %29 = tail call i32 @get_typ_typrelid(i32 noundef %27) #9
  %.not44 = icmp eq i32 %29, 0
  br i1 %.not44, label %.thread48, label %30

30:                                               ; preds = %28
  %31 = sub i32 %8, %.06067
  %32 = load ptr, ptr %2, align 8
  %33 = getelementptr inbounds nuw i8, ptr %32, i64 16
  %34 = load i32, ptr %33, align 8
  %35 = getelementptr inbounds nuw i8, ptr %32, i64 20
  %36 = load i32, ptr %35, align 4
  %.not.i = icmp slt i32 %34, %36
  %.pre.i = load ptr, ptr %32, align 8
  br i1 %.not.i, label %add_object_address.exit, label %37

37:                                               ; preds = %30
  %38 = shl i32 %36, 1
  store i32 %38, ptr %35, align 4
  %39 = sext i32 %38 to i64
  %40 = mul nsw i64 %39, 12
  %41 = tail call ptr @repalloc(ptr noundef %.pre.i, i64 noundef %40) #9
  store ptr %41, ptr %32, align 8
  %.pre14.i = load i32, ptr %33, align 8
  br label %add_object_address.exit

add_object_address.exit:                          ; preds = %30, %37
  %42 = phi i32 [ %.pre14.i, %37 ], [ %34, %30 ]
  %43 = phi ptr [ %41, %37 ], [ %.pre.i, %30 ]
  %44 = sext i32 %42 to i64
  %45 = getelementptr inbounds %struct.ObjectAddress, ptr %43, i64 %44
  store i32 1259, ptr %45, align 4
  %46 = getelementptr inbounds nuw i8, ptr %45, i64 4
  store i32 %29, ptr %46, align 4
  %47 = getelementptr inbounds nuw i8, ptr %45, i64 8
  store i32 %31, ptr %47, align 4
  %48 = load i32, ptr %33, align 8
  %49 = add i32 %48, 1
  store i32 %49, ptr %33, align 8
  br label %.thread48

._crit_edge75:                                    ; preds = %12
  %indvars.iv.next = add nuw nsw i64 %indvars.iv, 1
  %exitcond.not = icmp eq i64 %indvars.iv.next, %wide.trip.count
  br i1 %exitcond.not, label %._crit_edge.loopexit, label %12

._crit_edge.loopexit:                             ; preds = %._crit_edge75
  %50 = add i32 %18, 1
  br label %._crit_edge

._crit_edge:                                      ; preds = %._crit_edge.loopexit, %.lr.ph, %3
  %.0.lcssa = phi i32 [ 1, %3 ], [ 1, %.lr.ph ], [ %50, %._crit_edge.loopexit ]
  %51 = getelementptr inbounds nuw i8, ptr %0, i64 120
  %52 = load i8, ptr %51, align 8, !range !8, !noundef !9
  %53 = trunc nuw i8 %52 to i1
  %54 = sext i16 %1 to i32
  %55 = icmp eq i32 %.0.lcssa, %54
  %or.cond81 = select i1 %53, i1 %55, i1 false
  br i1 %or.cond81, label %.thread48, label %._crit_edge._crit_edge

._crit_edge._crit_edge:                           ; preds = %._crit_edge
  %56 = tail call zeroext i1 @errstart_cold(i32 noundef 21, ptr noundef null) #10
  tail call void @llvm.assume(i1 %56)
  %57 = tail call i32 @errcode(i32 noundef 50360452) #9
  %58 = getelementptr inbounds nuw i8, ptr %0, i64 16
  %59 = load ptr, ptr %58, align 8
  %60 = getelementptr inbounds nuw i8, ptr %59, i64 8
  %61 = load ptr, ptr %60, align 8
  %62 = tail call i32 (ptr, ...) @errmsg(ptr noundef nonnull @.str.28, i32 noundef %54, ptr noundef %61) #9
  tail call void @errfinish(ptr noundef nonnull @.str.1, i32 noundef 2391, ptr noundef nonnull @__func__.process_function_rte_ref) #9
  unreachable

.thread48:                                        ; preds = %._crit_edge, %.split, %add_object_address.exit, %28, %25, %21
  ret void
}